target datalayout = "e-m:e-p270:32:32-p271:32:32-p272:64:64-i64:64-i128:128-f80:128-n8:16:32:64-S128"
target triple = "x86_64-pc-linux-gnu"

; Function Attrs: nounwind uwtable
define internal void @ff_h264_add_pixels4_8_c(ptr noundef %0, ptr noundef %1, i32 noundef %2) #1 {
  %4 = alloca ptr, align 8
  %5 = alloca ptr, align 8
  %6 = alloca i32, align 4
  %7 = alloca i32, align 4
  %8 = alloca ptr, align 8
  %9 = alloca ptr, align 8
  store ptr %0, ptr %4, align 8, !tbaa !39
  store ptr %1, ptr %5, align 8, !tbaa !41
  store i32 %2, ptr %6, align 4, !tbaa !9
  call void @llvm.lifetime.start.p0(i64 4, ptr %7) #9
  call void @llvm.lifetime.start.p0(i64 8, ptr %8) #9
  %10 = load ptr, ptr %4, align 8, !tbaa !39
  store ptr %10, ptr %8, align 8, !tbaa !39
  call void @llvm.lifetime.start.p0(i64 8, ptr %9) #9
  %11 = load ptr, ptr %5, align 8, !tbaa !41
  store ptr %11, ptr %9, align 8, !tbaa !41
  %12 = load i32, ptr %6, align 4, !tbaa !9
  %13 = sext i32 %12 to i64
  %14 = udiv i64 %13, 1
  %15 = trunc i64 %14 to i32
  store i32 %15, ptr %6, align 4, !tbaa !9
  store i32 0, ptr %7, align 4, !tbaa !9
  br label %16

16:                                               ; preds = %66, %3
  %17 = load i32, ptr %7, align 4, !tbaa !9
  %18 = icmp slt i32 %17, 4
  br i1 %18, label %19, label %69

19:                                               ; preds = %16
  %20 = load ptr, ptr %9, align 8, !tbaa !41
  %21 = getelementptr inbounds i16, ptr %20, i64 0
  %22 = load i16, ptr %21, align 2, !tbaa !45
  %23 = sext i16 %22 to i32
  %24 = load ptr, ptr %8, align 8, !tbaa !39
  %25 = getelementptr inbounds i8, ptr %24, i64 0
  %26 = load i8, ptr %25, align 1, !tbaa !50
  %27 = zext i8 %26 to i32
  %28 = add i32 %27, %23
  %29 = trunc i32 %28 to i8
  store i8 %29, ptr %25, align 1, !tbaa !50
  %30 = load ptr, ptr %9, align 8, !tbaa !41
  %31 = getelementptr inbounds i16, ptr %30, i64 1
  %32 = load i16, ptr %31, align 2, !tbaa !45
  %33 = sext i16 %32 to i32
  %34 = load ptr, ptr %8, align 8, !tbaa !39
  %35 = getelementptr inbounds i8, ptr %34, i64 1
  %36 = load i8, ptr %35, align 1, !tbaa !50
  %37 = zext i8 %36 to i32
  %38 = add i32 %37, %33
  %39 = trunc i32 %38 to i8
  store i8 %39, ptr %35, align 1, !tbaa !50
  %40 = load ptr, ptr %9, align 8, !tbaa !41
  %41 = getelementptr inbounds i16, ptr %40, i64 2
  %42 = load i16, ptr %41, align 2, !tbaa !45
  %43 = sext i16 %42 to i32
  %44 = load ptr, ptr %8, align 8, !tbaa !39
  %45 = getelementptr inbounds i8, ptr %44, i64 2
  %46 = load i8, ptr %45, align 1, !tbaa !50
  %47 = zext i8 %46 to i32
  %48 = add i32 %47, %43
  %49 = trunc i32 %48 to i8
  store i8 %49, ptr %45, align 1, !tbaa !50
  %50 = load ptr, ptr %9, align 8, !tbaa !41
  %51 = getelementptr inbounds i16, ptr %50, i64 3
  %52 = load i16, ptr %51, align 2, !tbaa !45
  %53 = sext i16 %52 to i32
  %54 = load ptr, ptr %8, align 8, !tbaa !39
  %55 = getelementptr inbounds i8, ptr %54, i64 3
  %56 = load i8, ptr %55, align 1, !tbaa !50
  %57 = zext i8 %56 to i32
  %58 = add i32 %57, %53
  %59 = trunc i32 %58 to i8
  store i8 %59, ptr %55, align 1, !tbaa !50
  %60 = load i32, ptr %6, align 4, !tbaa !9
  %61 = load ptr, ptr %8, align 8, !tbaa !39
  %62 = sext i32 %60 to i64
  %63 = getelementptr inbounds i8, ptr %61, i64 %62
  store ptr %63, ptr %8, align 8, !tbaa !39
  %64 = load ptr, ptr %9, align 8, !tbaa !41
  %65 = getelementptr inbounds i16, ptr %64, i64 4
  store ptr %65, ptr %9, align 8, !tbaa !41
  br label %66

66:                                               ; preds = %19
  %67 = load i32, ptr %7, align 4, !tbaa !9
  %68 = add nsw i32 %67, 1
  store i32 %68, ptr %7, align 4, !tbaa !9
  br label %16, !llvm.loop !51

69:                                               ; preds = %16
  %70 = load ptr, ptr %5, align 8, !tbaa !41
  call void @llvm.memset.p0.i64(ptr align 2 %70, i8 0, i64 32, i1 false)
  call void @llvm.lifetime.end.p0(i64 8, ptr %9) #9
  call void @llvm.lifetime.end.p0(i64 8, ptr %8) #9
  call void @llvm.lifetime.end.p0(i64 4, ptr %7) #9
  ret void
}