; Function Attrs: nofree norecurse nosync nounwind memory(argmem: readwrite) uwtable
define internal void @ff_h264_add_pixels4_8_c(ptr noundef captures(none) %0, ptr noundef captures(none) %1, i32 noundef %2) #1 {
.lver.check:
  %3 = sext i32 %2 to i64
  %ident.check.not = icmp eq i32 %2, 1
  br i1 %ident.check.not, label %.ph, label %.ph.lver.orig

.ph.lver.orig:                                    ; preds = %.lver.check, %.ph.lver.orig
  %.020.lver.orig = phi ptr [ %27, %.ph.lver.orig ], [ %1, %.lver.check ]
  %.01619.lver.orig = phi ptr [ %26, %.ph.lver.orig ], [ %0, %.lver.check ]
  %.01718.lver.orig = phi i32 [ %28, %.ph.lver.orig ], [ 0, %.lver.check ]
  %4 = load i16, ptr %.020.lver.orig, align 2, !tbaa !37
  %5 = trunc i16 %4 to i8
  %6 = load i8, ptr %.01619.lver.orig, align 1, !tbaa !42
  %7 = add i8 %6, %5
  store i8 %7, ptr %.01619.lver.orig, align 1, !tbaa !42
  %8 = getelementptr inbounds nuw i8, ptr %.020.lver.orig, i64 2
  %9 = load i16, ptr %8, align 2, !tbaa !37
  %10 = trunc i16 %9 to i8
  %11 = getelementptr inbounds nuw i8, ptr %.01619.lver.orig, i64 1
  %12 = load i8, ptr %11, align 1, !tbaa !42
  %13 = add i8 %12, %10
  store i8 %13, ptr %11, align 1, !tbaa !42
  %14 = getelementptr inbounds nuw i8, ptr %.020.lver.orig, i64 4
  %15 = load i16, ptr %14, align 2, !tbaa !37
  %16 = trunc i16 %15 to i8
  %17 = getelementptr inbounds nuw i8, ptr %.01619.lver.orig, i64 2
  %18 = load i8, ptr %17, align 1, !tbaa !42
  %19 = add i8 %18, %16
  store i8 %19, ptr %17, align 1, !tbaa !42
  %20 = getelementptr inbounds nuw i8, ptr %.020.lver.orig, i64 6
  %21 = load i16, ptr %20, align 2, !tbaa !37
  %22 = trunc i16 %21 to i8
  %23 = getelementptr inbounds nuw i8, ptr %.01619.lver.orig, i64 3
  %24 = load i8, ptr %23, align 1, !tbaa !42
  %25 = add i8 %24, %22
  store i8 %25, ptr %23, align 1, !tbaa !42
  %26 = getelementptr inbounds i8, ptr %.01619.lver.orig, i64 %3
  %27 = getelementptr inbounds nuw i8, ptr %.020.lver.orig, i64 8
  %28 = add nuw nsw i32 %.01718.lver.orig, 1
  %exitcond.not.lver.orig = icmp eq i32 %28, 4
  br i1 %exitcond.not.lver.orig, label %.loopexit, label %.ph.lver.orig, !llvm.loop !43

.ph:                                              ; preds = %.lver.check
  %scevgep = getelementptr nuw i8, ptr %0, i64 2
  %load_initial = load i8, ptr %scevgep, align 1
  br label %29

29:                                               ; preds = %.ph, %29
  %store_forwarded = phi i8 [ %load_initial, %.ph ], [ %50, %29 ]
  %.020 = phi ptr [ %1, %.ph ], [ %52, %29 ]
  %.01619 = phi ptr [ %0, %.ph ], [ %51, %29 ]
  %.01718 = phi i32 [ 0, %.ph ], [ %53, %29 ]
  %30 = load i16, ptr %.020, align 2, !tbaa !37
  %31 = trunc i16 %30 to i8
  %32 = load i8, ptr %.01619, align 1, !tbaa !42
  %33 = add i8 %32, %31
  store i8 %33, ptr %.01619, align 1, !tbaa !42
  %34 = getelementptr inbounds nuw i8, ptr %.020, i64 2
  %35 = load i16, ptr %34, align 2, !tbaa !37
  %36 = trunc i16 %35 to i8
  %37 = getelementptr inbounds nuw i8, ptr %.01619, i64 1
  %38 = load i8, ptr %37, align 1, !tbaa !42
  %39 = add i8 %38, %36
  store i8 %39, ptr %37, align 1, !tbaa !42
  %40 = getelementptr inbounds nuw i8, ptr %.020, i64 4
  %41 = load i16, ptr %40, align 2, !tbaa !37
  %42 = trunc i16 %41 to i8
  %43 = getelementptr inbounds nuw i8, ptr %.01619, i64 2
  %44 = add i8 %store_forwarded, %42
  store i8 %44, ptr %43, align 1, !tbaa !42
  %45 = getelementptr inbounds nuw i8, ptr %.020, i64 6
  %46 = load i16, ptr %45, align 2, !tbaa !37
  %47 = trunc i16 %46 to i8
  %48 = getelementptr inbounds nuw i8, ptr %.01619, i64 3
  %49 = load i8, ptr %48, align 1, !tbaa !42
  %50 = add i8 %49, %47
  store i8 %50, ptr %48, align 1, !tbaa !42
  %51 = getelementptr inbounds nuw i8, ptr %.01619, i64 %3
  %52 = getelementptr inbounds nuw i8, ptr %.020, i64 8
  %53 = add nuw nsw i32 %.01718, 1
  %exitcond.not = icmp eq i32 %53, 4
  br i1 %exitcond.not, label %.loopexit, label %29, !llvm.loop !43

.loopexit:                                        ; preds = %.ph.lver.orig, %29
  tail call void @llvm.memset.p0.i64(ptr noundef nonnull align 2 dereferenceable(32) %1, i8 0, i64 32, i1 false)
  ret void
}